; Function Attrs: inlinehint mustprogress uwtable
define internal fastcc void @_ZN4cvc58internal6theory2ff5parse12_GLOBAL__N_18SpectrumC2EOS5_(ptr noundef nonnull align 8 dereferenceable(80) initializes((0, 9)) %0, ptr noundef nonnull align 8 dereferenceable(80) %1) unnamed_addr #8 align 2 personality ptr @__gxx_personality_v0 {
  %3 = load ptr, ptr %1, align 8, !tbaa !10
  store ptr %3, ptr %0, align 8, !tbaa !10
  %4 = load i64, ptr %3, align 8
  %5 = lshr i64 %4, 40
  %6 = trunc nuw nsw i64 %5 to i32
  %7 = and i32 %6, 1048575
  %8 = icmp samesign ult i32 %7, 1048574
  br i1 %8, label %9, label %14, !prof !17

9:                                                ; preds = %2
  %10 = add i64 %4, 1099511627776
  %11 = and i64 %10, 1152920405095219200
  %12 = and i64 %4, -1152920405095219201
  %13 = or disjoint i64 %11, %12
  store i64 %13, ptr %3, align 8
  br label %_ZN4cvc58internal12NodeTemplateILb1EEC2ERKS2_.exit

14:                                               ; preds = %2
  %15 = icmp eq i32 %7, 1048574
  br i1 %15, label %16, label %_ZN4cvc58internal12NodeTemplateILb1EEC2ERKS2_.exit, !prof !18

16:                                               ; preds = %14
  %17 = or i64 %4, 1152920405095219200
  store i64 %17, ptr %3, align 8
  tail call void @_ZN4cvc58internal4expr9NodeValue20markRefCountMaxedOutEv(ptr noundef nonnull align 8 dereferenceable(24) %3)
  br label %_ZN4cvc58internal12NodeTemplateILb1EEC2ERKS2_.exit

_ZN4cvc58internal12NodeTemplateILb1EEC2ERKS2_.exit: ; preds = %9, %14, %16
  %18 = getelementptr inbounds nuw i8, ptr %0, i64 8
  %19 = getelementptr inbounds nuw i8, ptr %1, i64 8
  %20 = load i8, ptr %19, align 8, !tbaa !19
  store i8 %20, ptr %18, align 8, !tbaa !19
  %21 = getelementptr inbounds nuw i8, ptr %0, i64 16
  %22 = getelementptr inbounds nuw i8, ptr %1, i64 16
  invoke void @__gmpz_init_set(ptr noundef nonnull align 8 dereferenceable(32) %21, ptr noundef nonnull align 8 dereferenceable(32) %22)
          to label %.noexc unwind label %39

.noexc:                                           ; preds = %_ZN4cvc58internal12NodeTemplateILb1EEC2ERKS2_.exit
  %23 = getelementptr inbounds nuw i8, ptr %0, i64 32
  %24 = getelementptr inbounds nuw i8, ptr %1, i64 32
  invoke void @__gmpz_init_set(ptr noundef nonnull align 8 dereferenceable(16) %23, ptr noundef nonnull align 8 dereferenceable(16) %24)
          to label %_ZN4cvc58internal16FiniteFieldValueC2ERKS1_.exit unwind label %25

25:                                               ; preds = %.noexc
  %26 = landingpad { ptr, i32 }
          cleanup
  invoke void @__gmpz_clear(ptr noundef nonnull align 8 dereferenceable(32) %21)
          to label %.body unwind label %27

27:                                               ; preds = %25
  %28 = landingpad { ptr, i32 }
          catch ptr null
  %29 = extractvalue { ptr, i32 } %28, 0
  tail call void @__clang_call_terminate(ptr %29) #21
  unreachable

_ZN4cvc58internal16FiniteFieldValueC2ERKS1_.exit: ; preds = %.noexc
  %30 = getelementptr inbounds nuw i8, ptr %0, i64 48
  %31 = getelementptr inbounds nuw i8, ptr %1, i64 48
  invoke void @__gmpz_init_set(ptr noundef nonnull align 8 dereferenceable(32) %30, ptr noundef nonnull align 8 dereferenceable(32) %31)
          to label %.noexc9 unwind label %41

.noexc9:                                          ; preds = %_ZN4cvc58internal16FiniteFieldValueC2ERKS1_.exit
  %32 = getelementptr inbounds nuw i8, ptr %0, i64 64
  %33 = getelementptr inbounds nuw i8, ptr %1, i64 64
  invoke void @__gmpz_init_set(ptr noundef nonnull align 8 dereferenceable(16) %32, ptr noundef nonnull align 8 dereferenceable(16) %33)
          to label %_ZN4cvc58internal16FiniteFieldValueC2ERKS1_.exit12 unwind label %34

34:                                               ; preds = %.noexc9
  %35 = landingpad { ptr, i32 }
          cleanup
  invoke void @__gmpz_clear(ptr noundef nonnull align 8 dereferenceable(32) %30)
          to label %.body10 unwind label %36

36:                                               ; preds = %34
  %37 = landingpad { ptr, i32 }
          catch ptr null
  %38 = extractvalue { ptr, i32 } %37, 0
  tail call void @__clang_call_terminate(ptr %38) #21
  unreachable

_ZN4cvc58internal16FiniteFieldValueC2ERKS1_.exit12: ; preds = %.noexc9
  ret void

39:                                               ; preds = %_ZN4cvc58internal12NodeTemplateILb1EEC2ERKS2_.exit
  %40 = landingpad { ptr, i32 }
          cleanup
  br label %.body

41:                                               ; preds = %_ZN4cvc58internal16FiniteFieldValueC2ERKS1_.exit
  %42 = landingpad { ptr, i32 }
          cleanup
  br label %.body10

.body10:                                          ; preds = %34, %41
  %eh.lpad-body11 = phi { ptr, i32 } [ %42, %41 ], [ %35, %34 ]
  tail call void @_ZN4cvc58internal16FiniteFieldValueD2Ev(ptr noundef nonnull align 8 dereferenceable(32) %21) #20
  br label %.body

.body:                                            ; preds = %39, %25, %.body10
  %.pn = phi { ptr, i32 } [ %eh.lpad-body11, %.body10 ], [ %40, %39 ], [ %26, %25 ]
  tail call void @_ZN4cvc58internal12NodeTemplateILb1EED2Ev(ptr noundef nonnull align 8 dereferenceable(8) %0) #20
  resume { ptr, i32 } %.pn
}